; Function Attrs: mustprogress nofree nounwind sspstrong willreturn memory(readwrite, argmem: none) uwtable
define dso_local void @onig_add_end_call(ptr noundef %0) local_unnamed_addr #14 {
  %2 = tail call noalias dereferenceable_or_null(16) ptr @malloc(i64 noundef 16) #19
  %3 = icmp eq ptr %2, null
  br i1 %3, label %7, label %4

4:                                                ; preds = %1
  %5 = load ptr, ptr @EndCallTop, align 8, !tbaa !217
  store ptr %5, ptr %2, align 8, !tbaa !219
  %6 = getelementptr inbounds nuw i8, ptr %2, i64 8
  store ptr %0, ptr %6, align 8, !tbaa !221
  store ptr %2, ptr @EndCallTop, align 8, !tbaa !217
  br label %7

7:                                                ; preds = %1, %4
  ret void
}